; Function Attrs: mustprogress nounwind uwtable
define dso_local void @_ZN4llvm3rdf7RefNode9setRegRefENS0_11RegisterRefERNS0_13DataFlowGraphE(ptr noundef nonnull writeonly align 8 captures(none) dereferenceable(32) initializes((24, 32)) %0, i32 %1, i64 %2, ptr noundef nonnull align 8 dereferenceable(736) %3) local_unnamed_addr #0 align 2 {
  %5 = icmp eq i64 %2, -1
  br i1 %5, label %_ZN4llvm3rdf13DataFlowGraph4packENS0_11RegisterRefE.exit, label %6

6:                                                ; preds = %4
  %7 = getelementptr inbounds nuw i8, ptr %3, i64 472
  %8 = tail call noundef i32 @_ZN4llvm3rdf10IndexedSetINS_11LaneBitmaskELj32EE6insertES2_(ptr noundef nonnull align 8 dereferenceable(24) %7, i64 %2)
  %9 = zext i32 %8 to i64
  %10 = shl nuw i64 %9, 32
  br label %_ZN4llvm3rdf13DataFlowGraph4packENS0_11RegisterRefE.exit

_ZN4llvm3rdf13DataFlowGraph4packENS0_11RegisterRefE.exit: ; preds = %4, %6
  %.sroa.23.0.insert.ext.i = phi i64 [ %10, %6 ], [ 0, %4 ]
  %.sroa.02.0.insert.ext.i = zext i32 %1 to i64
  %.sroa.02.0.insert.insert.i = or disjoint i64 %.sroa.23.0.insert.ext.i, %.sroa.02.0.insert.ext.i
  %11 = getelementptr inbounds nuw i8, ptr %0, i64 24
  store i64 %.sroa.02.0.insert.insert.i, ptr %11, align 8
  ret void
}